target datalayout = "e-m:e-p270:32:32-p271:32:32-p272:64:64-i64:64-i128:128-f80:128-n8:16:32:64-S128"
target triple = "x86_64-unknown-linux-gnu"

%class.btVector3 = type { [4 x float] }
%class.btMultiSphereShape = type { %class.btConvexInternalAabbCachingShape.base, [7 x i8], %class.btAlignedObjectArray, %class.btAlignedObjectArray.0 }
%class.btConvexInternalAabbCachingShape.base = type <{ %class.btConvexInternalShape, %class.btVector3, %class.btVector3, i8 }>
%class.btConvexInternalShape = type { %class.btConvexShape, %class.btVector3, %class.btVector3, float, float }
%class.btConvexShape = type { %class.btCollisionShape }
%class.btCollisionShape = type { ptr, i32, ptr, i32, i32 }
%class.btAlignedObjectArray = type <{ %class.btAlignedAllocator, [3 x i8], i32, i32, [4 x i8], ptr, i8, [7 x i8] }>
%class.btAlignedAllocator = type { i8 }
%class.btAlignedObjectArray.0 = type <{ %class.btAlignedAllocator.1, [3 x i8], i32, i32, [4 x i8], ptr, i8, [7 x i8] }>
%class.btAlignedAllocator.1 = type { i8 }
%struct.btMultiSphereShapeData = type { %struct.btConvexInternalShapeData, ptr, i32, [4 x i8] }
%struct.btConvexInternalShapeData = type { %struct.btCollisionShapeData, %struct.btVector3FloatData, %struct.btVector3FloatData, float, i32 }
%struct.btCollisionShapeData = type { ptr, i32, [4 x i8] }
%struct.btVector3FloatData = type { [4 x float] }
%class.btChunk = type { i32, i32, ptr, i32, i32 }
%struct.btPositionAndRadius = type { %struct.btVector3FloatData, float }

@.str = private unnamed_addr constant [20 x i8] c"btPositionAndRadius\00", align 1
@.str.1 = private unnamed_addr constant [23 x i8] c"btMultiSphereShapeData\00", align 1
@.str.2 = private unnamed_addr constant [26 x i8] c"btConvexInternalShapeData\00", align 1

; Function Attrs: mustprogress nounwind uwtable
define linkonce_odr dso_local noundef nonnull align 4 dereferenceable(4) ptr @_ZNK20btAlignedObjectArrayIfEixEi(ptr noundef nonnull align 8 dereferenceable(25) %this, i32 noundef %n) #1 comdat align 2 {
entry:
  %this.addr = alloca ptr, align 8
  %n.addr = alloca i32, align 4
  store ptr %this, ptr %this.addr, align 8
  store i32 %n, ptr %n.addr, align 4
  %this1 = load ptr, ptr %this.addr, align 8
  %m_data = getelementptr inbounds %class.btAlignedObjectArray.0, ptr %this1, i32 0, i32 5
  %0 = load ptr, ptr %m_data, align 8
  %1 = load i32, ptr %n.addr, align 4
  %idxprom = sext i32 %1 to i64
  %arrayidx = getelementptr inbounds float, ptr %0, i64 %idxprom
  ret ptr %arrayidx
}

; Function Attrs: mustprogress nounwind uwtable
define linkonce_odr dso_local void @_ZNK9btVector314serializeFloatER18btVector3FloatData(ptr noundef nonnull align 4 dereferenceable(16) %this, ptr noundef nonnull align 4 dereferenceable(16) %dataOut) #1 comdat align 2 {
entry:
  %this.addr = alloca ptr, align 8
  %dataOut.addr = alloca ptr, align 8
  %i = alloca i32, align 4
  store ptr %this, ptr %this.addr, align 8
  store ptr %dataOut, ptr %dataOut.addr, align 8
  %this1 = load ptr, ptr %this.addr, align 8
  store i32 0, ptr %i, align 4
  br label %for.cond

for.cond:                                         ; preds = %for.inc, %entry
  %0 = load i32, ptr %i, align 4
  %cmp = icmp slt i32 %0, 4
  br i1 %cmp, label %for.body, label %for.end

for.body:                                         ; preds = %for.cond
  %m_floats = getelementptr inbounds %class.btVector3, ptr %this1, i32 0, i32 0
  %1 = load i32, ptr %i, align 4
  %idxprom = sext i32 %1 to i64
  %arrayidx = getelementptr inbounds [4 x float], ptr %m_floats, i64 0, i64 %idxprom
  %2 = load float, ptr %arrayidx, align 4
  %3 = load ptr, ptr %dataOut.addr, align 8
  %m_floats2 = getelementptr inbounds %struct.btVector3FloatData, ptr %3, i32 0, i32 0
  %4 = load i32, ptr %i, align 4
  %idxprom3 = sext i32 %4 to i64
  %arrayidx4 = getelementptr inbounds [4 x float], ptr %m_floats2, i64 0, i64 %idxprom3
  store float %2, ptr %arrayidx4, align 4
  br label %for.inc

for.inc:                                          ; preds = %for.body
  %5 = load i32, ptr %i, align 4
  %inc = add nsw i32 %5, 1
  store i32 %inc, ptr %i, align 4
  br label %for.cond, !llvm.loop !18

for.end:                                          ; preds = %for.cond
  ret void
}

; Function Attrs: mustprogress nounwind uwtable
define linkonce_odr dso_local noundef nonnull align 4 dereferenceable(16) ptr @_ZNK20btAlignedObjectArrayI9btVector3EixEi(ptr noundef nonnull align 8 dereferenceable(25) %this, i32 noundef %n) #1 comdat align 2 {
entry:
  %this.addr = alloca ptr, align 8
  %n.addr = alloca i32, align 4
  store ptr %this, ptr %this.addr, align 8
  store i32 %n, ptr %n.addr, align 4
  %this1 = load ptr, ptr %this.addr, align 8
  %m_data = getelementptr inbounds %class.btAlignedObjectArray, ptr %this1, i32 0, i32 5
  %0 = load ptr, ptr %m_data, align 8
  %1 = load i32, ptr %n.addr, align 4
  %idxprom = sext i32 %1 to i64
  %arrayidx = getelementptr inbounds %class.btVector3, ptr %0, i64 %idxprom
  ret ptr %arrayidx
}

; Function Attrs: mustprogress nounwind uwtable
define linkonce_odr dso_local noundef i32 @_ZNK20btAlignedObjectArrayI9btVector3E4sizeEv(ptr noundef nonnull align 8 dereferenceable(25) %this) #1 comdat align 2 {
entry:
  %this.addr = alloca ptr, align 8
  store ptr %this, ptr %this.addr, align 8
  %this1 = load ptr, ptr %this.addr, align 8
  %m_size = getelementptr inbounds %class.btAlignedObjectArray, ptr %this1, i32 0, i32 2
  %0 = load i32, ptr %m_size, align 4
  ret i32 %0
}

; Function Attrs: mustprogress uwtable
define linkonce_odr dso_local noundef ptr @_ZNK21btConvexInternalShape9serializeEPvP12btSerializer(ptr noundef nonnull align 8 dereferenceable(72) %this, ptr noundef %dataBuffer, ptr noundef %serializer) unnamed_addr #2 comdat align 2 {
entry:
  %this.addr = alloca ptr, align 8
  %dataBuffer.addr = alloca ptr, align 8
  %serializer.addr = alloca ptr, align 8
  %shapeData = alloca ptr, align 8
  store ptr %this, ptr %this.addr, align 8
  store ptr %dataBuffer, ptr %dataBuffer.addr, align 8
  store ptr %serializer, ptr %serializer.addr, align 8
  %this1 = load ptr, ptr %this.addr, align 8
  %0 = load ptr, ptr %dataBuffer.addr, align 8
  store ptr %0, ptr %shapeData, align 8
  %1 = load ptr, ptr %shapeData, align 8
  %m_collisionShapeData = getelementptr inbounds %struct.btConvexInternalShapeData, ptr %1, i32 0, i32 0
  %2 = load ptr, ptr %serializer.addr, align 8
  %call = call noundef ptr @_ZNK16btCollisionShape9serializeEPvP12btSerializer(ptr noundef nonnull align 8 dereferenceable(32) %this1, ptr noundef %m_collisionShapeData, ptr noundef %2)
  %m_implicitShapeDimensions = getelementptr inbounds %class.btConvexInternalShape, ptr %this1, i32 0, i32 2
  %3 = load ptr, ptr %shapeData, align 8
  %m_implicitShapeDimensions2 = getelementptr inbounds %struct.btConvexInternalShapeData, ptr %3, i32 0, i32 2
  call void @_ZNK9btVector314serializeFloatER18btVector3FloatData(ptr noundef nonnull align 4 dereferenceable(16) %m_implicitShapeDimensions, ptr noundef nonnull align 4 dereferenceable(16) %m_implicitShapeDimensions2)
  %m_localScaling = getelementptr inbounds %class.btConvexInternalShape, ptr %this1, i32 0, i32 1
  %4 = load ptr, ptr %shapeData, align 8
  %m_localScaling3 = getelementptr inbounds %struct.btConvexInternalShapeData, ptr %4, i32 0, i32 1
  call void @_ZNK9btVector314serializeFloatER18btVector3FloatData(ptr noundef nonnull align 4 dereferenceable(16) %m_localScaling, ptr noundef nonnull align 4 dereferenceable(16) %m_localScaling3)
  %m_collisionMargin = getelementptr inbounds %class.btConvexInternalShape, ptr %this1, i32 0, i32 3
  %5 = load float, ptr %m_collisionMargin, align 8
  %6 = load ptr, ptr %shapeData, align 8
  %m_collisionMargin4 = getelementptr inbounds %struct.btConvexInternalShapeData, ptr %6, i32 0, i32 3
  store float %5, ptr %m_collisionMargin4, align 8
  %7 = load ptr, ptr %shapeData, align 8
  %m_padding = getelementptr inbounds %struct.btConvexInternalShapeData, ptr %7, i32 0, i32 4
  store i32 0, ptr %m_padding, align 4
  ret ptr @.str.2
}

; Function Attrs: mustprogress uwtable
define dso_local noundef ptr @_ZNK18btMultiSphereShape9serializeEPvP12btSerializer(ptr noundef nonnull align 8 dereferenceable(176) %this, ptr noundef %dataBuffer, ptr noundef %serializer) unnamed_addr #2 align 2 {
entry:
  %this.addr = alloca ptr, align 8
  %dataBuffer.addr = alloca ptr, align 8
  %serializer.addr = alloca ptr, align 8
  %shapeData = alloca ptr, align 8
  %numElem = alloca i32, align 4
  %chunk = alloca ptr, align 8
  %memPtr = alloca ptr, align 8
  %i = alloca i32, align 4
  store ptr %this, ptr %this.addr, align 8
  store ptr %dataBuffer, ptr %dataBuffer.addr, align 8
  store ptr %serializer, ptr %serializer.addr, align 8
  %this1 = load ptr, ptr %this.addr, align 8
  %0 = load ptr, ptr %dataBuffer.addr, align 8
  store ptr %0, ptr %shapeData, align 8
  %1 = load ptr, ptr %shapeData, align 8
  %m_convexInternalShapeData = getelementptr inbounds %struct.btMultiSphereShapeData, ptr %1, i32 0, i32 0
  %2 = load ptr, ptr %serializer.addr, align 8
  %call = call noundef ptr @_ZNK21btConvexInternalShape9serializeEPvP12btSerializer(ptr noundef nonnull align 8 dereferenceable(72) %this1, ptr noundef %m_convexInternalShapeData, ptr noundef %2)
  %m_localPositionArray = getelementptr inbounds %class.btMultiSphereShape, ptr %this1, i32 0, i32 2
  %call2 = call noundef i32 @_ZNK20btAlignedObjectArrayI9btVector3E4sizeEv(ptr noundef nonnull align 8 dereferenceable(25) %m_localPositionArray)
  store i32 %call2, ptr %numElem, align 4
  %3 = load i32, ptr %numElem, align 4
  %tobool = icmp ne i32 %3, 0
  br i1 %tobool, label %cond.true, label %cond.false

cond.true:                                        ; preds = %entry
  %4 = load ptr, ptr %serializer.addr, align 8
  %m_localPositionArray3 = getelementptr inbounds %class.btMultiSphereShape, ptr %this1, i32 0, i32 2
  %call4 = call noundef nonnull align 4 dereferenceable(16) ptr @_ZNK20btAlignedObjectArrayI9btVector3EixEi(ptr noundef nonnull align 8 dereferenceable(25) %m_localPositionArray3, i32 noundef 0)
  %vtable = load ptr, ptr %4, align 8
  %vfn = getelementptr inbounds ptr, ptr %vtable, i64 7
  %5 = load ptr, ptr %vfn, align 8
  %call5 = call noundef ptr %5(ptr noundef nonnull align 8 dereferenceable(8) %4, ptr noundef %call4)
  br label %cond.end

cond.false:                                       ; preds = %entry
  br label %cond.end

cond.end:                                         ; preds = %cond.false, %cond.true
  %cond = phi ptr [ %call5, %cond.true ], [ null, %cond.false ]
  %6 = load ptr, ptr %shapeData, align 8
  %m_localPositionArrayPtr = getelementptr inbounds %struct.btMultiSphereShapeData, ptr %6, i32 0, i32 1
  store ptr %cond, ptr %m_localPositionArrayPtr, align 8
  %7 = load i32, ptr %numElem, align 4
  %8 = load ptr, ptr %shapeData, align 8
  %m_localPositionArraySize = getelementptr inbounds %struct.btMultiSphereShapeData, ptr %8, i32 0, i32 2
  store i32 %7, ptr %m_localPositionArraySize, align 8
  %9 = load i32, ptr %numElem, align 4
  %tobool6 = icmp ne i32 %9, 0
  br i1 %tobool6, label %if.then, label %if.end

if.then:                                          ; preds = %cond.end
  %10 = load ptr, ptr %serializer.addr, align 8
  %11 = load i32, ptr %numElem, align 4
  %vtable7 = load ptr, ptr %10, align 8
  %vfn8 = getelementptr inbounds ptr, ptr %vtable7, i64 4
  %12 = load ptr, ptr %vfn8, align 8
  %call9 = call noundef ptr %12(ptr noundef nonnull align 8 dereferenceable(8) %10, i64 noundef 20, i32 noundef %11)
  store ptr %call9, ptr %chunk, align 8
  %13 = load ptr, ptr %chunk, align 8
  %m_oldPtr = getelementptr inbounds %class.btChunk, ptr %13, i32 0, i32 2
  %14 = load ptr, ptr %m_oldPtr, align 8
  store ptr %14, ptr %memPtr, align 8
  store i32 0, ptr %i, align 4
  br label %for.cond

for.cond:                                         ; preds = %for.inc, %if.then
  %15 = load i32, ptr %i, align 4
  %16 = load i32, ptr %numElem, align 4
  %cmp = icmp slt i32 %15, %16
  br i1 %cmp, label %for.body, label %for.end

for.body:                                         ; preds = %for.cond
  %m_localPositionArray10 = getelementptr inbounds %class.btMultiSphereShape, ptr %this1, i32 0, i32 2
  %17 = load i32, ptr %i, align 4
  %call11 = call noundef nonnull align 4 dereferenceable(16) ptr @_ZNK20btAlignedObjectArrayI9btVector3EixEi(ptr noundef nonnull align 8 dereferenceable(25) %m_localPositionArray10, i32 noundef %17)
  %18 = load ptr, ptr %memPtr, align 8
  %m_pos = getelementptr inbounds %struct.btPositionAndRadius, ptr %18, i32 0, i32 0
  call void @_ZNK9btVector314serializeFloatER18btVector3FloatData(ptr noundef nonnull align 4 dereferenceable(16) %call11, ptr noundef nonnull align 4 dereferenceable(16) %m_pos)
  %m_radiArray = getelementptr inbounds %class.btMultiSphereShape, ptr %this1, i32 0, i32 3
  %19 = load i32, ptr %i, align 4
  %call12 = call noundef nonnull align 4 dereferenceable(4) ptr @_ZNK20btAlignedObjectArrayIfEixEi(ptr noundef nonnull align 8 dereferenceable(25) %m_radiArray, i32 noundef %19)
  %20 = load float, ptr %call12, align 4
  %21 = load ptr, ptr %memPtr, align 8
  %m_radius = getelementptr inbounds %struct.btPositionAndRadius, ptr %21, i32 0, i32 1
  store float %20, ptr %m_radius, align 4
  br label %for.inc

for.inc:                                          ; preds = %for.body
  %22 = load i32, ptr %i, align 4
  %inc = add nsw i32 %22, 1
  store i32 %inc, ptr %i, align 4
  %23 = load ptr, ptr %memPtr, align 8
  %incdec.ptr = getelementptr inbounds %struct.btPositionAndRadius, ptr %23, i32 1
  store ptr %incdec.ptr, ptr %memPtr, align 8
  br label %for.cond, !llvm.loop !17

for.end:                                          ; preds = %for.cond
  %24 = load ptr, ptr %serializer.addr, align 8
  %25 = load ptr, ptr %chunk, align 8
  %m_localPositionArray13 = getelementptr inbounds %class.btMultiSphereShape, ptr %this1, i32 0, i32 2
  %call14 = call noundef nonnull align 4 dereferenceable(16) ptr @_ZNK20btAlignedObjectArrayI9btVector3EixEi(ptr noundef nonnull align 8 dereferenceable(25) %m_localPositionArray13, i32 noundef 0)
  %vtable15 = load ptr, ptr %24, align 8
  %vfn16 = getelementptr inbounds ptr, ptr %vtable15, i64 5
  %26 = load ptr, ptr %vfn16, align 8
  call void %26(ptr noundef nonnull align 8 dereferenceable(8) %24, ptr noundef %25, ptr noundef @.str, i32 noundef 1497453121, ptr noundef %call14)
  br label %if.end

if.end:                                           ; preds = %for.end, %cond.end
  %27 = load ptr, ptr %shapeData, align 8
  %m_padding = getelementptr inbounds %struct.btMultiSphereShapeData, ptr %27, i32 0, i32 3
  %arraydecay = getelementptr inbounds [4 x i8], ptr %m_padding, i64 0, i64 0
  call void @llvm.memset.p0.i64(ptr align 4 %arraydecay, i8 0, i64 4, i1 false)
  ret ptr @.str.1
}