; Function Attrs: mustprogress uwtable
define dso_local noundef ptr @_ZNK18btMultiSphereShape9serializeEPvP12btSerializer(ptr noundef nonnull align 8 dereferenceable(176) %this, ptr noundef %dataBuffer, ptr noundef %serializer) unnamed_addr #0 align 2 {
entry:
  %call.i = tail call noundef ptr @_ZNK16btCollisionShape9serializeEPvP12btSerializer(ptr noundef nonnull align 8 dereferenceable(32) %this, ptr noundef %dataBuffer, ptr noundef %serializer)
  %m_implicitShapeDimensions.i = getelementptr inbounds i8, ptr %this, i64 48
  %m_implicitShapeDimensions2.i = getelementptr inbounds i8, ptr %dataBuffer, i64 32
  br label %for.body.i.i

for.body.i.i:                                     ; preds = %for.body.i.i, %entry
  %indvars.iv.i.i = phi i64 [ 0, %entry ], [ %indvars.iv.next.i.i, %for.body.i.i ]
  %arrayidx.i.i = getelementptr inbounds [4 x float], ptr %m_implicitShapeDimensions.i, i64 0, i64 %indvars.iv.i.i
  %0 = load float, ptr %arrayidx.i.i, align 4
  %arrayidx4.i.i = getelementptr inbounds [4 x float], ptr %m_implicitShapeDimensions2.i, i64 0, i64 %indvars.iv.i.i
  store float %0, ptr %arrayidx4.i.i, align 4
  %indvars.iv.next.i.i = add nuw nsw i64 %indvars.iv.i.i, 1
  %exitcond.not.i.i = icmp eq i64 %indvars.iv.next.i.i, 4
  br i1 %exitcond.not.i.i, label %_ZNK9btVector314serializeFloatER18btVector3FloatData.exit.i, label %for.body.i.i, !llvm.loop !17

_ZNK9btVector314serializeFloatER18btVector3FloatData.exit.i: ; preds = %for.body.i.i
  %m_localScaling.i = getelementptr inbounds i8, ptr %this, i64 32
  %m_localScaling3.i = getelementptr inbounds i8, ptr %dataBuffer, i64 16
  br label %for.body.i5.i

for.body.i5.i:                                    ; preds = %for.body.i5.i, %_ZNK9btVector314serializeFloatER18btVector3FloatData.exit.i
  %indvars.iv.i6.i = phi i64 [ 0, %_ZNK9btVector314serializeFloatER18btVector3FloatData.exit.i ], [ %indvars.iv.next.i9.i, %for.body.i5.i ]
  %arrayidx.i7.i = getelementptr inbounds [4 x float], ptr %m_localScaling.i, i64 0, i64 %indvars.iv.i6.i
  %1 = load float, ptr %arrayidx.i7.i, align 4
  %arrayidx4.i8.i = getelementptr inbounds [4 x float], ptr %m_localScaling3.i, i64 0, i64 %indvars.iv.i6.i
  store float %1, ptr %arrayidx4.i8.i, align 4
  %indvars.iv.next.i9.i = add nuw nsw i64 %indvars.iv.i6.i, 1
  %exitcond.not.i10.i = icmp eq i64 %indvars.iv.next.i9.i, 4
  br i1 %exitcond.not.i10.i, label %_ZNK21btConvexInternalShape9serializeEPvP12btSerializer.exit, label %for.body.i5.i, !llvm.loop !17

_ZNK21btConvexInternalShape9serializeEPvP12btSerializer.exit: ; preds = %for.body.i5.i
  %m_collisionMargin.i = getelementptr inbounds i8, ptr %this, i64 64
  %2 = load float, ptr %m_collisionMargin.i, align 8
  %m_collisionMargin4.i = getelementptr inbounds i8, ptr %dataBuffer, i64 48
  store float %2, ptr %m_collisionMargin4.i, align 8
  %m_padding.i = getelementptr inbounds i8, ptr %dataBuffer, i64 52
  store i32 0, ptr %m_padding.i, align 4
  %m_size.i = getelementptr inbounds i8, ptr %this, i64 116
  %3 = load i32, ptr %m_size.i, align 4
  %tobool.not = icmp eq i32 %3, 0
  br i1 %tobool.not, label %if.end.critedge, label %cond.true

cond.true:                                        ; preds = %_ZNK21btConvexInternalShape9serializeEPvP12btSerializer.exit
  %m_data.i = getelementptr inbounds i8, ptr %this, i64 128
  %4 = load ptr, ptr %m_data.i, align 8
  %vtable = load ptr, ptr %serializer, align 8
  %vfn = getelementptr inbounds i8, ptr %vtable, i64 56
  %5 = load ptr, ptr %vfn, align 8
  %call5 = tail call noundef ptr %5(ptr noundef nonnull align 8 dereferenceable(8) %serializer, ptr noundef nonnull %4)
  %m_localPositionArrayPtr = getelementptr inbounds i8, ptr %dataBuffer, i64 56
  store ptr %call5, ptr %m_localPositionArrayPtr, align 8
  %m_localPositionArraySize = getelementptr inbounds i8, ptr %dataBuffer, i64 64
  store i32 %3, ptr %m_localPositionArraySize, align 8
  %vtable7 = load ptr, ptr %serializer, align 8
  %vfn8 = getelementptr inbounds i8, ptr %vtable7, i64 32
  %6 = load ptr, ptr %vfn8, align 8
  %call9 = tail call noundef ptr %6(ptr noundef nonnull align 8 dereferenceable(8) %serializer, i64 noundef 20, i32 noundef %3)
  %cmp23 = icmp sgt i32 %3, 0
  br i1 %cmp23, label %for.body.lr.ph, label %for.end

for.body.lr.ph:                                   ; preds = %cond.true
  %m_oldPtr = getelementptr inbounds i8, ptr %call9, i64 8
  %7 = load ptr, ptr %m_oldPtr, align 8
  %m_data.i19 = getelementptr inbounds i8, ptr %this, i64 160
  %wide.trip.count = zext nneg i32 %3 to i64
  br label %for.body

for.body:                                         ; preds = %for.body.lr.ph, %_ZNK9btVector314serializeFloatER18btVector3FloatData.exit
  %indvars.iv = phi i64 [ 0, %for.body.lr.ph ], [ %indvars.iv.next, %_ZNK9btVector314serializeFloatER18btVector3FloatData.exit ]
  %memPtr.024 = phi ptr [ %7, %for.body.lr.ph ], [ %incdec.ptr, %_ZNK9btVector314serializeFloatER18btVector3FloatData.exit ]
  %8 = load ptr, ptr %m_data.i, align 8
  %arrayidx.i = getelementptr inbounds %class.btVector3, ptr %8, i64 %indvars.iv
  br label %for.body.i

for.body.i:                                       ; preds = %for.body.i, %for.body
  %indvars.iv.i = phi i64 [ 0, %for.body ], [ %indvars.iv.next.i, %for.body.i ]
  %arrayidx.i18 = getelementptr inbounds [4 x float], ptr %arrayidx.i, i64 0, i64 %indvars.iv.i
  %9 = load float, ptr %arrayidx.i18, align 4
  %arrayidx4.i = getelementptr inbounds [4 x float], ptr %memPtr.024, i64 0, i64 %indvars.iv.i
  store float %9, ptr %arrayidx4.i, align 4
  %indvars.iv.next.i = add nuw nsw i64 %indvars.iv.i, 1
  %exitcond.not.i = icmp eq i64 %indvars.iv.next.i, 4
  br i1 %exitcond.not.i, label %_ZNK9btVector314serializeFloatER18btVector3FloatData.exit, label %for.body.i, !llvm.loop !17

_ZNK9btVector314serializeFloatER18btVector3FloatData.exit: ; preds = %for.body.i
  %10 = load ptr, ptr %m_data.i19, align 8
  %arrayidx.i21 = getelementptr inbounds float, ptr %10, i64 %indvars.iv
  %11 = load float, ptr %arrayidx.i21, align 4
  %m_radius = getelementptr inbounds i8, ptr %memPtr.024, i64 16
  store float %11, ptr %m_radius, align 4
  %indvars.iv.next = add nuw nsw i64 %indvars.iv, 1
  %incdec.ptr = getelementptr inbounds i8, ptr %memPtr.024, i64 20
  %exitcond.not = icmp eq i64 %indvars.iv.next, %wide.trip.count
  br i1 %exitcond.not, label %for.end, label %for.body, !llvm.loop !18

for.end:                                          ; preds = %_ZNK9btVector314serializeFloatER18btVector3FloatData.exit, %cond.true
  %12 = load ptr, ptr %m_data.i, align 8
  %vtable15 = load ptr, ptr %serializer, align 8
  %vfn16 = getelementptr inbounds i8, ptr %vtable15, i64 40
  %13 = load ptr, ptr %vfn16, align 8
  tail call void %13(ptr noundef nonnull align 8 dereferenceable(8) %serializer, ptr noundef %call9, ptr noundef nonnull @.str, i32 noundef 1497453121, ptr noundef nonnull %12)
  br label %if.end

if.end.critedge:                                  ; preds = %_ZNK21btConvexInternalShape9serializeEPvP12btSerializer.exit
  %m_localPositionArrayPtr.c = getelementptr inbounds i8, ptr %dataBuffer, i64 56
  store ptr null, ptr %m_localPositionArrayPtr.c, align 8
  %m_localPositionArraySize.c = getelementptr inbounds i8, ptr %dataBuffer, i64 64
  store i32 0, ptr %m_localPositionArraySize.c, align 8
  br label %if.end

if.end:                                           ; preds = %if.end.critedge, %for.end
  %m_padding = getelementptr inbounds i8, ptr %dataBuffer, i64 68
  store i32 0, ptr %m_padding, align 4
  ret ptr @.str.1
}